; Function Attrs: mustprogress uwtable
define hidden void @_ZN2cv3hal12cpu_baseline9absdiff8uEPKhmS3_mPhmii(ptr nocapture noundef readonly %0, i64 noundef %1, ptr nocapture noundef readonly %2, i64 noundef %3, ptr nocapture noundef writeonly %4, i64 noundef %5, i32 noundef %6, i32 noundef %7) local_unnamed_addr #0 personality ptr @__gxx_personality_v0 {
  %9 = alloca %"class.cv::utils::trace::details::Region", align 8
  call void @_ZN2cv5utils5trace7details6RegionC1ERKNS3_21LocationStaticStorageE(ptr noundef nonnull align 8 dereferenceable(12) %9, ptr noundef nonnull align 8 dereferenceable(32) @_ZZN2cv3hal12cpu_baseline9absdiff8uEPKhmS3_mPhmiiE25__cv_trace_location_fn547)
  %.not23.i = icmp ne i32 %7, 0
  %10 = icmp sgt i32 %6, 0
  %or.cond.i = and i1 %10, %.not23.i
  br i1 %or.cond.i, label %.preheader.us.preheader.i, label %_ZN2cv3hal12cpu_baselineL8bin_loopINS1_10op_absdiffEhNS_12hal_baseline5v_regIhLi16EEEEEvPKT0_mS9_mPS7_mii.exit

.preheader.us.preheader.i:                        ; preds = %8
  %wide.trip.count.i = zext nneg i32 %6 to i64
  br label %.preheader.us.i

.preheader.us.i:                                  ; preds = %._crit_edge.us.i, %.preheader.us.preheader.i
  %.in.i = phi i32 [ %21, %._crit_edge.us.i ], [ %7, %.preheader.us.preheader.i ]
  %.01926.us.i = phi ptr [ %22, %._crit_edge.us.i ], [ %0, %.preheader.us.preheader.i ]
  %.02025.us.i = phi ptr [ %24, %._crit_edge.us.i ], [ %4, %.preheader.us.preheader.i ]
  %.02124.us.i = phi ptr [ %23, %._crit_edge.us.i ], [ %2, %.preheader.us.preheader.i ]
  br label %11

11:                                               ; preds = %11, %.preheader.us.i
  %indvars.iv.i = phi i64 [ 0, %.preheader.us.i ], [ %indvars.iv.next.i, %11 ]
  %12 = getelementptr inbounds i8, ptr %.01926.us.i, i64 %indvars.iv.i
  %13 = load i8, ptr %12, align 1
  %14 = getelementptr inbounds i8, ptr %.02124.us.i, i64 %indvars.iv.i
  %15 = load i8, ptr %14, align 1
  %16 = icmp ugt i8 %13, %15
  %17 = sub i8 %13, %15
  %18 = sub i8 %15, %13
  %19 = select i1 %16, i8 %17, i8 %18
  %20 = getelementptr inbounds i8, ptr %.02025.us.i, i64 %indvars.iv.i
  store i8 %19, ptr %20, align 1
  %indvars.iv.next.i = add nuw nsw i64 %indvars.iv.i, 1
  %exitcond.not.i = icmp eq i64 %indvars.iv.next.i, %wide.trip.count.i
  br i1 %exitcond.not.i, label %._crit_edge.us.i, label %11, !llvm.loop !65

._crit_edge.us.i:                                 ; preds = %11
  %21 = add nsw i32 %.in.i, -1
  %22 = getelementptr inbounds i8, ptr %.01926.us.i, i64 %1
  %23 = getelementptr inbounds i8, ptr %.02124.us.i, i64 %3
  %24 = getelementptr inbounds i8, ptr %.02025.us.i, i64 %5
  %.not.us.i = icmp eq i32 %21, 0
  br i1 %.not.us.i, label %_ZN2cv3hal12cpu_baselineL8bin_loopINS1_10op_absdiffEhNS_12hal_baseline5v_regIhLi16EEEEEvPKT0_mS9_mPS7_mii.exit, label %.preheader.us.i, !llvm.loop !66

_ZN2cv3hal12cpu_baselineL8bin_loopINS1_10op_absdiffEhNS_12hal_baseline5v_regIhLi16EEEEEvPKT0_mS9_mPS7_mii.exit: ; preds = %._crit_edge.us.i, %8
  %25 = getelementptr inbounds i8, ptr %9, i64 8
  %26 = load i32, ptr %25, align 8
  %.not.i = icmp eq i32 %26, 0
  br i1 %.not.i, label %_ZN2cv5utils5trace7details6RegionD2Ev.exit, label %27

27:                                               ; preds = %_ZN2cv3hal12cpu_baselineL8bin_loopINS1_10op_absdiffEhNS_12hal_baseline5v_regIhLi16EEEEEvPKT0_mS9_mPS7_mii.exit
  invoke void @_ZN2cv5utils5trace7details6Region7destroyEv(ptr noundef nonnull align 8 dereferenceable(12) %9)
          to label %_ZN2cv5utils5trace7details6RegionD2Ev.exit unwind label %28

28:                                               ; preds = %27
  %29 = landingpad { ptr, i32 }
          catch ptr null
  %30 = extractvalue { ptr, i32 } %29, 0
  call void @__clang_call_terminate(ptr %30) #11
  unreachable

_ZN2cv5utils5trace7details6RegionD2Ev.exit:       ; preds = %_ZN2cv3hal12cpu_baselineL8bin_loopINS1_10op_absdiffEhNS_12hal_baseline5v_regIhLi16EEEEEvPKT0_mS9_mPS7_mii.exit, %27
  ret void
}